target datalayout = "e-m:e-p270:32:32-p271:32:32-p272:64:64-i64:64-i128:128-f80:128-n8:16:32:64-S128"
target triple = "x86_64-pc-linux-gnu"

%struct.nghttp2_buf = type { ptr, ptr, ptr, ptr, ptr }
%struct.nghttp2_bufs = type { ptr, ptr, ptr, i64, i64, i64, i64, i64 }
%struct.nghttp2_buf_chain = type { ptr, %struct.nghttp2_buf }

; Function Attrs: nounwind uwtable
define hidden void @nghttp2_buf_free(ptr noundef %0, ptr noundef %1) #0 {
  %3 = alloca ptr, align 8
  %4 = alloca ptr, align 8
  store ptr %0, ptr %3, align 8, !tbaa !3
  store ptr %1, ptr %4, align 8, !tbaa !3
  %5 = load ptr, ptr %3, align 8, !tbaa !3
  %6 = icmp eq ptr %5, null
  br i1 %6, label %7, label %8

7:                                                ; preds = %2
  br label %15

8:                                                ; preds = %2
  %9 = load ptr, ptr %4, align 8, !tbaa !3
  %10 = load ptr, ptr %3, align 8, !tbaa !3
  %11 = getelementptr inbounds nuw %struct.nghttp2_buf, ptr %10, i32 0, i32 0
  %12 = load ptr, ptr %11, align 8, !tbaa !7
  call void @nghttp2_mem_free(ptr noundef %9, ptr noundef %12)
  %13 = load ptr, ptr %3, align 8, !tbaa !3
  %14 = getelementptr inbounds nuw %struct.nghttp2_buf, ptr %13, i32 0, i32 0
  store ptr null, ptr %14, align 8, !tbaa !7
  br label %15

15:                                               ; preds = %8, %7
  ret void
}

; Function Attrs: nounwind uwtable
define internal void @buf_chain_del(ptr noundef %0, ptr noundef %1) #0 {
  %3 = alloca ptr, align 8
  %4 = alloca ptr, align 8
  store ptr %0, ptr %3, align 8, !tbaa !23
  store ptr %1, ptr %4, align 8, !tbaa !3
  %5 = load ptr, ptr %3, align 8, !tbaa !23
  %6 = getelementptr inbounds nuw %struct.nghttp2_buf_chain, ptr %5, i32 0, i32 1
  %7 = load ptr, ptr %4, align 8, !tbaa !3
  call void @nghttp2_buf_free(ptr noundef %6, ptr noundef %7)
  %8 = load ptr, ptr %4, align 8, !tbaa !3
  %9 = load ptr, ptr %3, align 8, !tbaa !23
  call void @nghttp2_mem_free(ptr noundef %8, ptr noundef %9)
  ret void
}

; Function Attrs: nounwind uwtable
define hidden void @nghttp2_buf_reset(ptr noundef %0) #0 {
  %2 = alloca ptr, align 8
  store ptr %0, ptr %2, align 8, !tbaa !3
  %3 = load ptr, ptr %2, align 8, !tbaa !3
  %4 = getelementptr inbounds nuw %struct.nghttp2_buf, ptr %3, i32 0, i32 0
  %5 = load ptr, ptr %4, align 8, !tbaa !7
  %6 = load ptr, ptr %2, align 8, !tbaa !3
  %7 = getelementptr inbounds nuw %struct.nghttp2_buf, ptr %6, i32 0, i32 4
  store ptr %5, ptr %7, align 8, !tbaa !13
  %8 = load ptr, ptr %2, align 8, !tbaa !3
  %9 = getelementptr inbounds nuw %struct.nghttp2_buf, ptr %8, i32 0, i32 3
  store ptr %5, ptr %9, align 8, !tbaa !12
  %10 = load ptr, ptr %2, align 8, !tbaa !3
  %11 = getelementptr inbounds nuw %struct.nghttp2_buf, ptr %10, i32 0, i32 2
  store ptr %5, ptr %11, align 8, !tbaa !11
  ret void
}

; Function Attrs: nounwind uwtable
define hidden void @nghttp2_bufs_reset(ptr noundef %0) #0 {
  %2 = alloca ptr, align 8
  %3 = alloca ptr, align 8
  %4 = alloca ptr, align 8
  %5 = alloca i64, align 8
  store ptr %0, ptr %2, align 8, !tbaa !3
  call void @llvm.lifetime.start.p0(i64 8, ptr %3) #4
  call void @llvm.lifetime.start.p0(i64 8, ptr %4) #4
  call void @llvm.lifetime.start.p0(i64 8, ptr %5) #4
  %6 = load ptr, ptr %2, align 8, !tbaa !3
  %7 = getelementptr inbounds nuw %struct.nghttp2_bufs, ptr %6, i32 0, i32 6
  %8 = load i64, ptr %7, align 8, !tbaa !32
  store i64 %8, ptr %5, align 8, !tbaa !14
  %9 = load ptr, ptr %2, align 8, !tbaa !3
  %10 = getelementptr inbounds nuw %struct.nghttp2_bufs, ptr %9, i32 0, i32 0
  %11 = load ptr, ptr %10, align 8, !tbaa !24
  store ptr %11, ptr %4, align 8, !tbaa !23
  br label %12

12:                                               ; preds = %42, %1
  %13 = load ptr, ptr %4, align 8, !tbaa !23
  %14 = icmp ne ptr %13, null
  br i1 %14, label %15, label %46

15:                                               ; preds = %12
  %16 = load ptr, ptr %4, align 8, !tbaa !23
  %17 = getelementptr inbounds nuw %struct.nghttp2_buf_chain, ptr %16, i32 0, i32 1
  call void @nghttp2_buf_reset(ptr noundef %17)
  br label %18

18:                                               ; preds = %15
  %19 = load ptr, ptr %2, align 8, !tbaa !3
  %20 = getelementptr inbounds nuw %struct.nghttp2_bufs, ptr %19, i32 0, i32 7
  %21 = load i64, ptr %20, align 8, !tbaa !22
  %22 = load ptr, ptr %4, align 8, !tbaa !23
  %23 = getelementptr inbounds nuw %struct.nghttp2_buf_chain, ptr %22, i32 0, i32 1
  %24 = getelementptr inbounds nuw %struct.nghttp2_buf, ptr %23, i32 0, i32 2
  %25 = load ptr, ptr %24, align 8, !tbaa !26
  %26 = getelementptr inbounds nuw i8, ptr %25, i64 %21
  store ptr %26, ptr %24, align 8, !tbaa !26
  %27 = load ptr, ptr %2, align 8, !tbaa !3
  %28 = getelementptr inbounds nuw %struct.nghttp2_bufs, ptr %27, i32 0, i32 7
  %29 = load i64, ptr %28, align 8, !tbaa !22
  %30 = load ptr, ptr %4, align 8, !tbaa !23
  %31 = getelementptr inbounds nuw %struct.nghttp2_buf_chain, ptr %30, i32 0, i32 1
  %32 = getelementptr inbounds nuw %struct.nghttp2_buf, ptr %31, i32 0, i32 3
  %33 = load ptr, ptr %32, align 8, !tbaa !28
  %34 = getelementptr inbounds nuw i8, ptr %33, i64 %29
  store ptr %34, ptr %32, align 8, !tbaa !28
  br label %35

35:                                               ; preds = %18
  br label %36

36:                                               ; preds = %35
  %37 = load i64, ptr %5, align 8, !tbaa !14
  %38 = add i64 %37, -1
  store i64 %38, ptr %5, align 8, !tbaa !14
  %39 = icmp eq i64 %38, 0
  br i1 %39, label %40, label %41

40:                                               ; preds = %36
  br label %46

41:                                               ; preds = %36
  br label %42

42:                                               ; preds = %41
  %43 = load ptr, ptr %4, align 8, !tbaa !23
  %44 = getelementptr inbounds nuw %struct.nghttp2_buf_chain, ptr %43, i32 0, i32 0
  %45 = load ptr, ptr %44, align 8, !tbaa !36
  store ptr %45, ptr %4, align 8, !tbaa !23
  br label %12, !llvm.loop !52

46:                                               ; preds = %40, %12
  %47 = load ptr, ptr %4, align 8, !tbaa !23
  %48 = icmp ne ptr %47, null
  br i1 %48, label %49, label %74

49:                                               ; preds = %46
  %50 = load ptr, ptr %4, align 8, !tbaa !23
  %51 = getelementptr inbounds nuw %struct.nghttp2_buf_chain, ptr %50, i32 0, i32 0
  %52 = load ptr, ptr %51, align 8, !tbaa !36
  store ptr %52, ptr %3, align 8, !tbaa !23
  %53 = load ptr, ptr %4, align 8, !tbaa !23
  %54 = getelementptr inbounds nuw %struct.nghttp2_buf_chain, ptr %53, i32 0, i32 0
  store ptr null, ptr %54, align 8, !tbaa !36
  %55 = load ptr, ptr %3, align 8, !tbaa !23
  store ptr %55, ptr %4, align 8, !tbaa !23
  br label %56

56:                                               ; preds = %59, %49
  %57 = load ptr, ptr %4, align 8, !tbaa !23
  %58 = icmp ne ptr %57, null
  br i1 %58, label %59, label %68

59:                                               ; preds = %56
  %60 = load ptr, ptr %4, align 8, !tbaa !23
  %61 = getelementptr inbounds nuw %struct.nghttp2_buf_chain, ptr %60, i32 0, i32 0
  %62 = load ptr, ptr %61, align 8, !tbaa !36
  store ptr %62, ptr %3, align 8, !tbaa !23
  %63 = load ptr, ptr %4, align 8, !tbaa !23
  %64 = load ptr, ptr %2, align 8, !tbaa !3
  %65 = getelementptr inbounds nuw %struct.nghttp2_bufs, ptr %64, i32 0, i32 2
  %66 = load ptr, ptr %65, align 8, !tbaa !19
  call void @buf_chain_del(ptr noundef %63, ptr noundef %66)
  %67 = load ptr, ptr %3, align 8, !tbaa !23
  store ptr %67, ptr %4, align 8, !tbaa !23
  br label %56, !llvm.loop !53

68:                                               ; preds = %56
  %69 = load ptr, ptr %2, align 8, !tbaa !3
  %70 = getelementptr inbounds nuw %struct.nghttp2_bufs, ptr %69, i32 0, i32 6
  %71 = load i64, ptr %70, align 8, !tbaa !32
  %72 = load ptr, ptr %2, align 8, !tbaa !3
  %73 = getelementptr inbounds nuw %struct.nghttp2_bufs, ptr %72, i32 0, i32 5
  store i64 %71, ptr %73, align 8, !tbaa !30
  br label %74

74:                                               ; preds = %68, %46
  %75 = load ptr, ptr %2, align 8, !tbaa !3
  %76 = getelementptr inbounds nuw %struct.nghttp2_bufs, ptr %75, i32 0, i32 0
  %77 = load ptr, ptr %76, align 8, !tbaa !24
  %78 = load ptr, ptr %2, align 8, !tbaa !3
  %79 = getelementptr inbounds nuw %struct.nghttp2_bufs, ptr %78, i32 0, i32 1
  store ptr %77, ptr %79, align 8, !tbaa !25
  call void @llvm.lifetime.end.p0(i64 8, ptr %5) #4
  call void @llvm.lifetime.end.p0(i64 8, ptr %4) #4
  call void @llvm.lifetime.end.p0(i64 8, ptr %3) #4
  ret void
}